; Function Attrs: mustprogress uwtable
define void @_ZN3zmq6pipe_t17send_hwms_to_peerEii(ptr noundef nonnull align 8 dereferenceable(328) %0, i32 noundef %1, i32 noundef %2) local_unnamed_addr #0 align 2 {
  %4 = getelementptr inbounds nuw i8, ptr %0, i64 152
  %5 = load i32, ptr %4, align 8, !tbaa !105
  %6 = icmp eq i32 %5, 0
  br i1 %6, label %7, label %10

7:                                                ; preds = %3
  %8 = getelementptr inbounds nuw i8, ptr %0, i64 136
  %9 = load ptr, ptr %8, align 8, !tbaa !29
  tail call void @_ZN3zmq8object_t13send_pipe_hwmEPNS_6pipe_tEii(ptr noundef nonnull align 8 dereferenceable(20) %0, ptr noundef %9, i32 noundef %1, i32 noundef %2)
  br label %10

10:                                               ; preds = %7, %3
  ret void
}